target datalayout = "e-m:e-p270:32:32-p271:32:32-p272:64:64-i64:64-i128:128-f80:128-n8:16:32:64-S128"
target triple = "x86_64-pc-linux-gnu"

%"struct.Yosys::RTLIL::Const" = type { i16, i8, %union.anon }
%union.anon = type { %"class.std::__cxx11::basic_string" }
%"class.std::__cxx11::basic_string" = type { %"struct.std::__cxx11::basic_string<char>::_Alloc_hider", i64, %union.anon.3 }
%"struct.std::__cxx11::basic_string<char>::_Alloc_hider" = type { ptr }
%union.anon.3 = type { i64, [8 x i8] }

; Function Attrs: mustprogress uwtable
define void @_ZN5Yosys5RTLIL9const_negERKNS0_5ConstES3_bbi(ptr dead_on_unwind noalias writable sret(%"struct.Yosys::RTLIL::Const") align 8 %0, ptr noundef nonnull align 8 dereferenceable(40) %1, ptr noundef nonnull align 8 dereferenceable(40) %2, i1 noundef zeroext %3, i1 noundef zeroext %4, i32 noundef %5) #4 personality ptr @__gxx_personality_v0 {
  %7 = alloca ptr, align 8
  %8 = alloca ptr, align 8
  %9 = alloca ptr, align 8
  %10 = alloca i8, align 1
  %11 = alloca i8, align 1
  %12 = alloca i32, align 4
  %13 = alloca %"struct.Yosys::RTLIL::Const", align 8
  %14 = alloca %"struct.Yosys::RTLIL::Const", align 8
  %15 = alloca ptr, align 8
  %16 = alloca i32, align 4
  store ptr %0, ptr %7, align 8
  store ptr %1, ptr %8, align 8, !tbaa !6
  store ptr %2, ptr %9, align 8, !tbaa !6
  %17 = zext i1 %3 to i8
  store i8 %17, ptr %10, align 1, !tbaa !11
  %18 = zext i1 %4 to i8
  store i8 %18, ptr %11, align 1, !tbaa !11
  store i32 %5, ptr %12, align 4, !tbaa !13
  call void @llvm.lifetime.start.p0(i64 40, ptr %13) #3
  %19 = load ptr, ptr %8, align 8, !tbaa !6
  call void @_ZN5Yosys5RTLIL5ConstC1ERKS1_(ptr noundef nonnull align 8 dereferenceable(40) %13, ptr noundef nonnull align 8 dereferenceable(40) %19)
  call void @llvm.lifetime.start.p0(i64 40, ptr %14) #3
  invoke void @_ZN5Yosys5RTLIL5ConstC1ENS0_5StateEi(ptr noundef nonnull align 8 dereferenceable(40) %14, i8 noundef zeroext 0, i32 noundef 1)
          to label %20 unwind label %25

20:                                               ; preds = %6
  %21 = load i8, ptr %10, align 1, !tbaa !11, !range !15, !noundef !16
  %22 = trunc i8 %21 to i1
  %23 = load i32, ptr %12, align 4, !tbaa !13
  invoke void @_ZN5Yosys5RTLIL9const_subERKNS0_5ConstES3_bbi(ptr dead_on_unwind writable sret(%"struct.Yosys::RTLIL::Const") align 8 %0, ptr noundef nonnull align 8 dereferenceable(40) %14, ptr noundef nonnull align 8 dereferenceable(40) %13, i1 noundef zeroext true, i1 noundef zeroext %22, i32 noundef %23)
          to label %24 unwind label %29

24:                                               ; preds = %20
  call void @_ZN5Yosys5RTLIL5ConstD1Ev(ptr noundef nonnull align 8 dereferenceable(40) %14) #3
  call void @llvm.lifetime.end.p0(i64 40, ptr %14) #3
  call void @_ZN5Yosys5RTLIL5ConstD1Ev(ptr noundef nonnull align 8 dereferenceable(40) %13) #3
  call void @llvm.lifetime.end.p0(i64 40, ptr %13) #3
  ret void

25:                                               ; preds = %6
  %26 = landingpad { ptr, i32 }
          cleanup
  %27 = extractvalue { ptr, i32 } %26, 0
  store ptr %27, ptr %15, align 8
  %28 = extractvalue { ptr, i32 } %26, 1
  store i32 %28, ptr %16, align 4
  br label %33

29:                                               ; preds = %20
  %30 = landingpad { ptr, i32 }
          cleanup
  %31 = extractvalue { ptr, i32 } %30, 0
  store ptr %31, ptr %15, align 8
  %32 = extractvalue { ptr, i32 } %30, 1
  store i32 %32, ptr %16, align 4
  call void @_ZN5Yosys5RTLIL5ConstD1Ev(ptr noundef nonnull align 8 dereferenceable(40) %14) #3
  br label %33

33:                                               ; preds = %29, %25
  call void @llvm.lifetime.end.p0(i64 40, ptr %14) #3
  call void @_ZN5Yosys5RTLIL5ConstD1Ev(ptr noundef nonnull align 8 dereferenceable(40) %13) #3
  call void @llvm.lifetime.end.p0(i64 40, ptr %13) #3
  br label %34

34:                                               ; preds = %33
  %35 = load ptr, ptr %15, align 8
  %36 = load i32, ptr %16, align 4
  %37 = insertvalue { ptr, i32 } poison, ptr %35, 0
  %38 = insertvalue { ptr, i32 } %37, i32 %36, 1
  resume { ptr, i32 } %38
}